target datalayout = "e-m:e-p270:32:32-p271:32:32-p272:64:64-i64:64-i128:128-f80:128-n8:16:32:64-S128"
target triple = "x86_64-pc-linux-gnu"

%"class.gmx::FlagsTemplate" = type { i64 }
%"class.std::__cxx11::basic_string" = type { %"struct.std::__cxx11::basic_string<char>::_Alloc_hider", i64, %union.anon }
%"struct.std::__cxx11::basic_string<char>::_Alloc_hider" = type { ptr }
%union.anon = type { i64, [8 x i8] }
%"class.gmx::AbstractOptionStorage" = type <{ ptr, %"class.std::__cxx11::basic_string", %"class.std::__cxx11::basic_string", %"class.gmx::FlagsTemplate", ptr, i32, i32, i8, i8, [6 x i8] }>
%class.anon.7 = type { i8 }

@.str.1 = private unnamed_addr constant [132 x i8] c"generated/home/dtcxzyw/WorkSpace/Projects/compilers/llvm-opt-benchmark/bench/gromacs/gromacs/src/gromacs/options/abstractoption.cpp\00", align 1
@.str.9 = private unnamed_addr constant [8 x i8] c"bInSet_\00", align 1
@.str.10 = private unnamed_addr constant [22 x i8] c"startSet() not called\00", align 1
@"__PRETTY_FUNCTION__._ZZN3gmx21AbstractOptionStorage9finishSetEvENK3$_0clEv" = private unnamed_addr constant [84 x i8] c"auto gmx::AbstractOptionStorage::finishSet()::(anonymous class)::operator()() const\00", align 1

; Function Attrs: mustprogress nounwind uwtable
define linkonce_odr void @_ZN3gmx13FlagsTemplateINS_10OptionFlagEE3setES1_(ptr noundef nonnull align 8 dereferenceable(8) %0, i64 noundef %1) #1 comdat align 2 {
  %3 = alloca ptr, align 8
  %4 = alloca i64, align 8
  store ptr %0, ptr %3, align 8, !tbaa !35
  store i64 %1, ptr %4, align 8, !tbaa !38
  %5 = load ptr, ptr %3, align 8
  %6 = load i64, ptr %4, align 8, !tbaa !38
  %7 = getelementptr inbounds nuw %"class.gmx::FlagsTemplate", ptr %5, i32 0, i32 0
  %8 = load i64, ptr %7, align 8, !tbaa !37
  %9 = or i64 %8, %6
  store i64 %9, ptr %7, align 8, !tbaa !37
  ret void
}

; Function Attrs: mustprogress nounwind uwtable
define linkonce_odr void @_ZN3gmx13FlagsTemplateINS_10OptionFlagEE5clearES1_(ptr noundef nonnull align 8 dereferenceable(8) %0, i64 noundef %1) #1 comdat align 2 {
  %3 = alloca ptr, align 8
  %4 = alloca i64, align 8
  store ptr %0, ptr %3, align 8, !tbaa !35
  store i64 %1, ptr %4, align 8, !tbaa !38
  %5 = load ptr, ptr %3, align 8
  %6 = load i64, ptr %4, align 8, !tbaa !38
  %7 = xor i64 %6, -1
  %8 = getelementptr inbounds nuw %"class.gmx::FlagsTemplate", ptr %5, i32 0, i32 0
  %9 = load i64, ptr %8, align 8, !tbaa !37
  %10 = and i64 %9, %7
  store i64 %10, ptr %8, align 8, !tbaa !37
  ret void
}

; Function Attrs: mustprogress uwtable
define linkonce_odr void @_ZN3gmx21AbstractOptionStorage7setFlagENS_10OptionFlagE(ptr noundef nonnull align 8 dereferenceable(98) %0, i64 noundef %1) #0 comdat align 2 {
  %3 = alloca ptr, align 8
  %4 = alloca i64, align 8
  store ptr %0, ptr %3, align 8, !tbaa !3
  store i64 %1, ptr %4, align 8, !tbaa !38
  %5 = load ptr, ptr %3, align 8
  %6 = getelementptr inbounds nuw %"class.gmx::AbstractOptionStorage", ptr %5, i32 0, i32 3
  %7 = load i64, ptr %4, align 8, !tbaa !38
  call void @_ZN3gmx13FlagsTemplateINS_10OptionFlagEE3setES1_(ptr noundef nonnull align 8 dereferenceable(8) %6, i64 noundef %7)
  ret void
}

; Function Attrs: mustprogress uwtable
define linkonce_odr void @_ZN3gmx21AbstractOptionStorage9clearFlagENS_10OptionFlagE(ptr noundef nonnull align 8 dereferenceable(98) %0, i64 noundef %1) #0 comdat align 2 {
  %3 = alloca ptr, align 8
  %4 = alloca i64, align 8
  store ptr %0, ptr %3, align 8, !tbaa !3
  store i64 %1, ptr %4, align 8, !tbaa !38
  %5 = load ptr, ptr %3, align 8
  %6 = getelementptr inbounds nuw %"class.gmx::AbstractOptionStorage", ptr %5, i32 0, i32 3
  %7 = load i64, ptr %4, align 8, !tbaa !38
  call void @_ZN3gmx13FlagsTemplateINS_10OptionFlagEE5clearES1_(ptr noundef nonnull align 8 dereferenceable(8) %6, i64 noundef %7)
  ret void
}

; Function Attrs: mustprogress uwtable
define void @_ZN3gmx21AbstractOptionStorage9markAsSetEv(ptr noundef nonnull align 8 dereferenceable(98) %0) #0 align 2 {
  %2 = alloca ptr, align 8
  store ptr %0, ptr %2, align 8, !tbaa !3
  %3 = load ptr, ptr %2, align 8
  call void @_ZN3gmx21AbstractOptionStorage7setFlagENS_10OptionFlagE(ptr noundef nonnull align 8 dereferenceable(98) %3, i64 noundef 1)
  %4 = getelementptr inbounds nuw %"class.gmx::AbstractOptionStorage", ptr %3, i32 0, i32 4
  %5 = load ptr, ptr %4, align 8, !tbaa !19
  %6 = icmp ne ptr %5, null
  br i1 %6, label %7, label %10

7:                                                ; preds = %1
  %8 = getelementptr inbounds nuw %"class.gmx::AbstractOptionStorage", ptr %3, i32 0, i32 4
  %9 = load ptr, ptr %8, align 8, !tbaa !19
  store i8 1, ptr %9, align 1, !tbaa !32
  br label %10

10:                                               ; preds = %7, %1
  ret void
}

; Function Attrs: inlinehint mustprogress uwtable
define internal void @"_ZZN3gmx21AbstractOptionStorage9finishSetEvENK3$_0clEv"(ptr noundef nonnull align 1 dereferenceable(1) %0) #2 align 2 {
  %2 = alloca ptr, align 8
  store ptr %0, ptr %2, align 8, !tbaa !57
  call void @_ZN3gmx8internal13assertHandlerEPKcS2_S2_S2_i(ptr noundef @.str.9, ptr noundef @.str.10, ptr noundef @"__PRETTY_FUNCTION__._ZZN3gmx21AbstractOptionStorage9finishSetEvENK3$_0clEv", ptr noundef @.str.1, i32 noundef 144) #20
  unreachable
}

; Function Attrs: mustprogress uwtable
define void @_ZN3gmx21AbstractOptionStorage9finishSetEv(ptr noundef nonnull align 8 dereferenceable(98) %0) #0 align 2 {
  %2 = alloca ptr, align 8
  %3 = alloca %class.anon.7, align 1
  store ptr %0, ptr %2, align 8, !tbaa !3
  %4 = load ptr, ptr %2, align 8
  %5 = getelementptr inbounds nuw %"class.gmx::AbstractOptionStorage", ptr %4, i32 0, i32 7
  %6 = load i8, ptr %5, align 8, !tbaa !28, !range !55, !noundef !56
  %7 = trunc i8 %6 to i1
  call void @llvm.lifetime.start.p0(i64 1, ptr %3) #19
  br i1 %7, label %8, label %9

8:                                                ; preds = %1
  br label %10

9:                                                ; preds = %1
  call void @"_ZZN3gmx21AbstractOptionStorage9finishSetEvENK3$_0clEv"(ptr noundef nonnull align 1 dereferenceable(1) %3)
  br label %10

10:                                               ; preds = %9, %8
  call void @llvm.lifetime.end.p0(i64 1, ptr %3) #19
  %11 = getelementptr inbounds nuw %"class.gmx::AbstractOptionStorage", ptr %4, i32 0, i32 7
  store i8 0, ptr %11, align 8, !tbaa !28
  call void @_ZN3gmx21AbstractOptionStorage9markAsSetEv(ptr noundef nonnull align 8 dereferenceable(98) %4)
  %12 = getelementptr inbounds nuw %"class.gmx::AbstractOptionStorage", ptr %4, i32 0, i32 8
  %13 = load i8, ptr %12, align 1, !tbaa !29, !range !55, !noundef !56
  %14 = trunc i8 %13 to i1
  br i1 %14, label %19, label %15

15:                                               ; preds = %10
  %16 = load ptr, ptr %4, align 8, !tbaa !10
  %17 = getelementptr inbounds ptr, ptr %16, i64 11
  %18 = load ptr, ptr %17, align 8
  call void %18(ptr noundef nonnull align 8 dereferenceable(98) %4)
  br label %19

19:                                               ; preds = %15, %10
  %20 = getelementptr inbounds nuw %"class.gmx::AbstractOptionStorage", ptr %4, i32 0, i32 8
  store i8 0, ptr %20, align 1, !tbaa !29
  call void @_ZN3gmx21AbstractOptionStorage9clearFlagENS_10OptionFlagE(ptr noundef nonnull align 8 dereferenceable(98) %4, i64 noundef 8)
  %21 = load ptr, ptr %4, align 8, !tbaa !10
  %22 = getelementptr inbounds ptr, ptr %21, i64 9
  %23 = load ptr, ptr %22, align 8
  call void %23(ptr noundef nonnull align 8 dereferenceable(98) %4)
  ret void
}