; Function Attrs: mustprogress uwtable
define void @_ZN3gmx21AbstractOptionStorage9finishSetEv(ptr noundef nonnull align 8 dereferenceable(98) %0) local_unnamed_addr #0 align 2 {
  %2 = getelementptr inbounds nuw i8, ptr %0, i64 96
  %3 = load i8, ptr %2, align 8, !tbaa !28, !range !58, !noundef !59
  %4 = trunc nuw i8 %3 to i1
  br i1 %4, label %6, label %5

5:                                                ; preds = %1
  tail call void @_ZN3gmx8internal13assertHandlerEPKcS2_S2_S2_i(ptr noundef nonnull @.str.9, ptr noundef nonnull @.str.10, ptr noundef nonnull @"__PRETTY_FUNCTION__._ZZN3gmx21AbstractOptionStorage9finishSetEvENK3$_0clEv", ptr noundef nonnull @.str.1, i32 noundef 144) #30
  unreachable

6:                                                ; preds = %1
  store i8 0, ptr %2, align 8, !tbaa !28
  %7 = getelementptr inbounds nuw i8, ptr %0, i64 72
  %8 = load i64, ptr %7, align 8, !tbaa !15
  %9 = or i64 %8, 1
  store i64 %9, ptr %7, align 8, !tbaa !15
  %10 = getelementptr inbounds nuw i8, ptr %0, i64 80
  %11 = load ptr, ptr %10, align 8, !tbaa !21
  %.not.i = icmp eq ptr %11, null
  br i1 %.not.i, label %_ZN3gmx21AbstractOptionStorage9markAsSetEv.exit, label %12

12:                                               ; preds = %6
  store i8 1, ptr %11, align 1, !tbaa !34
  br label %_ZN3gmx21AbstractOptionStorage9markAsSetEv.exit

_ZN3gmx21AbstractOptionStorage9markAsSetEv.exit:  ; preds = %6, %12
  %13 = getelementptr inbounds nuw i8, ptr %0, i64 97
  %14 = load i8, ptr %13, align 1, !tbaa !29, !range !58, !noundef !59
  %15 = trunc nuw i8 %14 to i1
  br i1 %15, label %20, label %16

16:                                               ; preds = %_ZN3gmx21AbstractOptionStorage9markAsSetEv.exit
  %17 = load ptr, ptr %0, align 8, !tbaa !3
  %18 = getelementptr inbounds nuw i8, ptr %17, i64 88
  %19 = load ptr, ptr %18, align 8
  tail call void %19(ptr noundef nonnull align 8 dereferenceable(98) %0)
  %.pre = load i64, ptr %7, align 8, !tbaa !15
  br label %20

20:                                               ; preds = %16, %_ZN3gmx21AbstractOptionStorage9markAsSetEv.exit
  %21 = phi i64 [ %.pre, %16 ], [ %9, %_ZN3gmx21AbstractOptionStorage9markAsSetEv.exit ]
  store i8 0, ptr %13, align 1, !tbaa !29
  %22 = and i64 %21, -9
  store i64 %22, ptr %7, align 8, !tbaa !15
  %23 = load ptr, ptr %0, align 8, !tbaa !3
  %24 = getelementptr inbounds nuw i8, ptr %23, i64 72
  %25 = load ptr, ptr %24, align 8
  tail call void %25(ptr noundef nonnull align 8 dereferenceable(98) %0)
  ret void
}